target datalayout = "e-m:e-p270:32:32-p271:32:32-p272:64:64-i64:64-i128:128-f80:128-n8:16:32:64-S128"
target triple = "x86_64-pc-linux-gnu"

@initialized = dso_local global i8 0, align 1
@threads = dso_local global i16 1, align 2
@hwloc_xml_whole = internal global ptr null, align 8
@procs = dso_local global i16 0, align 2
@sockets = dso_local global i16 0, align 2
@cores = dso_local global i16 0, align 2
@block_map_size = dso_local global i16 0, align 2
@block_map = dso_local global ptr null, align 8
@block_map_inv = dso_local global ptr null, align 8

; Function Attrs: nounwind uwtable
define dso_local i32 @xcpuinfo_fini() #0 {
  %1 = alloca i32, align 4
  %2 = load i8, ptr @initialized, align 1, !range !8, !noundef !9
  %3 = trunc i8 %2 to i1
  br i1 %3, label %5, label %4

4:                                                ; preds = %0
  store i32 0, ptr %1, align 4
  br label %10

5:                                                ; preds = %0
  store i8 0, ptr @initialized, align 1
  store i16 0, ptr @threads, align 2
  store i16 0, ptr @cores, align 2
  store i16 0, ptr @sockets, align 2
  store i16 0, ptr @procs, align 2
  store i16 0, ptr @block_map_size, align 2
  call void @slurm_xfree(ptr noundef @block_map)
  call void @slurm_xfree(ptr noundef @block_map_inv)
  %6 = load ptr, ptr @hwloc_xml_whole, align 8
  %7 = icmp ne ptr %6, null
  br i1 %7, label %8, label %9

8:                                                ; preds = %5
  call void @slurm_xfree(ptr noundef @hwloc_xml_whole)
  br label %9

9:                                                ; preds = %8, %5
  store i32 0, ptr %1, align 4
  br label %10

10:                                               ; preds = %9, %4
  %11 = load i32, ptr %1, align 4
  ret i32 %11
}