; Function Attrs: nounwind uwtable
define dso_local noundef i32 @xcpuinfo_fini() local_unnamed_addr #0 {
  %1 = load i8, ptr @initialized, align 1, !range !8, !noundef !9
  %2 = trunc nuw i8 %1 to i1
  br i1 %2, label %3, label %6

3:                                                ; preds = %0
  store i8 0, ptr @initialized, align 1
  store i16 0, ptr @threads, align 2
  store i16 0, ptr @cores, align 2
  store i16 0, ptr @sockets, align 2
  store i16 0, ptr @procs, align 2
  store i16 0, ptr @block_map_size, align 2
  tail call void @slurm_xfree(ptr noundef nonnull @block_map) #12
  tail call void @slurm_xfree(ptr noundef nonnull @block_map_inv) #12
  %4 = load ptr, ptr @hwloc_xml_whole, align 8
  %.not = icmp eq ptr %4, null
  br i1 %.not, label %6, label %5

5:                                                ; preds = %3
  tail call void @slurm_xfree(ptr noundef nonnull @hwloc_xml_whole) #12
  br label %6

6:                                                ; preds = %3, %5, %0
  ret i32 0
}